(lp0
(dp1
S'text'
p2
S'ASP .NET MVC'
p3
sS'link'
p4
Vhttps://www.linkedin.com/learning/topics/asp-dot-net-mvc
p5
sS'weight'
p6
I7
sa(dp7
g2
S'Android SDK'
p8
sg4
Vhttps://www.linkedin.com/learning/topics/android-sdk
p9
sg6
I7
sa(dp10
g2
S'Apache Spark'
p11
sg4
Vhttps://www.linkedin.com/learning/search?keywords=spark
p12
sg6
I6
sa(dp13
g2
S'C++'
p14
sg4
Vhttps://www.linkedin.com/learning/search?keywords=C%2B%2B
p15
sg6
I6
sa(dp16
g2
S'CSS'
p17
sg4
Vhttps://www.linkedin.com/learning/search?keywords=css
p18
sg6
I12
sa(dp19
g2
S'Excel'
p20
sg4
Vhttps://www.linkedin.com/learning/search?keywords=Excel
p21
sg6
I6
sa(dp22
g2
S'HTML'
p23
sg4
Vhttps://www.linkedin.com/learning/search?keywords=html
p24
sg6
I11
sa(dp25
g2
S'Hadoop'
p26
sg4
Vhttps://www.linkedin.com/learning/topics/hadoop-2
p27
sg6
I6
sa(dp28
g2
S'Java'
p29
sg4
Vhttps://www.linkedin.com/learning/search?keywords=Java
p30
sg6
I12
sa(dp31
g2
S'JavaScript'
p32
sg4
Vhttps://www.linkedin.com/learning/search?keywords=javascript
p33
sg6
I21
sa(dp34
g2
S'MATLAB'
p35
sg4
Vhttps://www.linkedin.com/learning/topics/matlab
p36
sg6
I8
sa(dp37
g2
S'Machine Learning'
p38
sg4
Vhttps://www.linkedin.com/learning/topics/machine-learning
p39
sg6
I12
sa(dp40
g2
S'MongoDB'
p41
sg4
Vhttps://www.linkedin.com/learning/topics/mongodbb
p42
sg6
I7
sa(dp43
g2
S'NoSQL'
p44
sg4
Vhttps://www.linkedin.com/learning/topics/sql
p45
sg6
I7
sa(dp46
g2
S'Python'
p47
sg4
Vhttps://www.linkedin.com/learning/search?keywords=Python
p48
sg6
I6
sa(dp49
g2
S'R'
p50
sg4
Vhttps://www.linkedin.com/learning/search?keywords=R
p51
sg6
I7
sa(dp52
g2
S'SQL'
p53
sg4
Vhttps://www.linkedin.com/learning/topics/sql
p54
sg6
I11
sa(dp55
g2
S'TensorFlow'
p56
sg4
Vhttps://www.linkedin.com/learning/topics/tensorflow
p57
sg6
I6
sa(dp58
g2
S'XML'
p59
sg4
Vhttps://www.linkedin.com/learning/topics/xml
p60
sg6
I6
sa(dp61
g2
S'jQuery'
p62
sg4
Vhttps://www.linkedin.com/learning/topics/jquery
p63
sg6
I7
sa(dp64
g2
S'ml'
p65
sg4
S'https://www.linkedin.com/'
p66
sg6
I0
sa.